(dp0
S'Autumn'
p1
(dp2
S'work'
p3
S'555-666-4444'
p4
ssS'Jason'
p5
(dp6
S'cell'
p7
S'770-712-5155'
p8
sS'home'
p9
S'666-666-3333'
p10
ssS'Toby'
p11
(dp12
S'home'
p13
S'555-222-3432'
p14
ssS'Bernie'
p15
(dp16
S'cell'
p17
S'333-000-2222'
p18
ss.